target datalayout = "e-m:e-p270:32:32-p271:32:32-p272:64:64-i64:64-i128:128-f80:128-n8:16:32:64-S128"
target triple = "x86_64-pc-linux-gnu"

%"class.std::_Rb_tree.181" = type { %"struct.std::_Rb_tree<ActionDescriptor, ActionDescriptor, std::_Identity<ActionDescriptor>, std::function<bool (const std::__cxx11::basic_string<char> &, const std::__cxx11::basic_string<char> &)>>::_Rb_tree_impl" }
%"struct.std::_Rb_tree<ActionDescriptor, ActionDescriptor, std::_Identity<ActionDescriptor>, std::function<bool (const std::__cxx11::basic_string<char> &, const std::__cxx11::basic_string<char> &)>>::_Rb_tree_impl" = type { %"struct.std::_Rb_tree_key_compare.185", %"struct.std::_Rb_tree_header" }
%"struct.std::_Rb_tree_key_compare.185" = type { %"class.std::function.186" }
%"class.std::function.186" = type { %"class.std::_Function_base", ptr }
%"class.std::_Function_base" = type { %"union.std::_Any_data", ptr }
%"union.std::_Any_data" = type { %"union.std::_Nocopy_types" }
%"union.std::_Nocopy_types" = type { { i64, i64 } }
%"struct.std::_Rb_tree_header" = type { %"struct.std::_Rb_tree_node_base", i64 }
%"struct.std::_Rb_tree_node_base" = type { i32, ptr, ptr, ptr }

; Function Attrs: mustprogress nounwind uwtable
define linkonce_odr dso_local void @_ZNSt14_Function_baseD2Ev(ptr noundef nonnull align 8 dereferenceable(24) %0) unnamed_addr #6 comdat align 2 personality ptr @__gxx_personality_v0 {
  %2 = alloca ptr, align 8
  store ptr %0, ptr %2, align 8, !tbaa !327
  %3 = load ptr, ptr %2, align 8
  %4 = getelementptr inbounds nuw %"class.std::_Function_base", ptr %3, i32 0, i32 1
  %5 = load ptr, ptr %4, align 8, !tbaa !320
  %6 = icmp ne ptr %5, null
  br i1 %6, label %7, label %14

7:                                                ; preds = %1
  %8 = getelementptr inbounds nuw %"class.std::_Function_base", ptr %3, i32 0, i32 1
  %9 = load ptr, ptr %8, align 8, !tbaa !320
  %10 = getelementptr inbounds nuw %"class.std::_Function_base", ptr %3, i32 0, i32 0
  %11 = getelementptr inbounds nuw %"class.std::_Function_base", ptr %3, i32 0, i32 0
  %12 = invoke noundef zeroext i1 %9(ptr noundef nonnull align 8 dereferenceable(16) %10, ptr noundef nonnull align 8 dereferenceable(16) %11, i32 noundef 3)
          to label %13 unwind label %15

13:                                               ; preds = %7
  br label %14

14:                                               ; preds = %13, %1
  ret void

15:                                               ; preds = %7
  %16 = landingpad { ptr, i32 }
          catch ptr null
  %17 = extractvalue { ptr, i32 } %16, 0
  call void @__clang_call_terminate(ptr %17) #22
  unreachable
}

; Function Attrs: mustprogress nounwind uwtable
define internal void @_ZNSt15__new_allocatorISt13_Rb_tree_nodeIZN12_GLOBAL__N_122HandleTransformCommandERKSt6vectorINSt7__cxx1112basic_stringIcSt11char_traitsIcESaIcEEESaIS8_EER17cmExecutionStatusE16ActionDescriptorEED2Ev(ptr noundef nonnull align 1 dereferenceable(1) %0) unnamed_addr #6 align 2 {
  %2 = alloca ptr, align 8
  store ptr %0, ptr %2, align 8, !tbaa !359
  ret void
}

; Function Attrs: inlinehint mustprogress nounwind uwtable
define linkonce_odr dso_local void @_ZNSt20_Rb_tree_key_compareISt8functionIFbRKNSt7__cxx1112basic_stringIcSt11char_traitsIcESaIcEEES8_EEED2Ev(ptr noundef nonnull align 8 dereferenceable(32) %0) unnamed_addr #8 comdat align 2 {
  %2 = alloca ptr, align 8
  store ptr %0, ptr %2, align 8, !tbaa !361
  %3 = load ptr, ptr %2, align 8
  %4 = getelementptr inbounds nuw %"struct.std::_Rb_tree_key_compare.185", ptr %3, i32 0, i32 0
  call void @_ZNSt14_Function_baseD2Ev(ptr noundef nonnull align 8 dereferenceable(32) %4) #3
  ret void
}

; Function Attrs: mustprogress nounwind uwtable
define internal noundef ptr @_ZNKSt8_Rb_treeIZN12_GLOBAL__N_122HandleTransformCommandERKSt6vectorINSt7__cxx1112basic_stringIcSt11char_traitsIcESaIcEEESaIS7_EER17cmExecutionStatusE16ActionDescriptorSE_St9_IdentityISE_ESt8functionIFbRKS7_SJ_EESaISE_EE9_M_mbeginEv(ptr noundef nonnull align 8 dereferenceable(72) %0) #6 align 2 {
  %2 = alloca ptr, align 8
  store ptr %0, ptr %2, align 8, !tbaa !350
  %3 = load ptr, ptr %2, align 8
  %4 = getelementptr inbounds nuw %"class.std::_Rb_tree.181", ptr %3, i32 0, i32 0
  %5 = getelementptr inbounds i8, ptr %4, i64 32
  %6 = getelementptr inbounds nuw %"struct.std::_Rb_tree_header", ptr %5, i32 0, i32 0
  %7 = getelementptr inbounds nuw %"struct.std::_Rb_tree_node_base", ptr %6, i32 0, i32 1
  %8 = load ptr, ptr %7, align 8, !tbaa !369
  ret ptr %8
}

; Function Attrs: inlinehint mustprogress nounwind uwtable
define internal void @_ZNSt8_Rb_treeIZN12_GLOBAL__N_122HandleTransformCommandERKSt6vectorINSt7__cxx1112basic_stringIcSt11char_traitsIcESaIcEEESaIS7_EER17cmExecutionStatusE16ActionDescriptorSE_St9_IdentityISE_ESt8functionIFbRKS7_SJ_EESaISE_EE13_Rb_tree_implISL_Lb0EED2Ev(ptr noundef nonnull align 8 dereferenceable(72) %0) unnamed_addr #8 align 2 {
  %2 = alloca ptr, align 8
  store ptr %0, ptr %2, align 8, !tbaa !357
  %3 = load ptr, ptr %2, align 8
  call void @_ZNSt20_Rb_tree_key_compareISt8functionIFbRKNSt7__cxx1112basic_stringIcSt11char_traitsIcESaIcEEES8_EEED2Ev(ptr noundef nonnull align 8 dereferenceable(32) %3) #3
  call void @_ZNSt15__new_allocatorISt13_Rb_tree_nodeIZN12_GLOBAL__N_122HandleTransformCommandERKSt6vectorINSt7__cxx1112basic_stringIcSt11char_traitsIcESaIcEEESaIS8_EER17cmExecutionStatusE16ActionDescriptorEED2Ev(ptr noundef nonnull align 1 dereferenceable(1) %3) #3
  ret void
}

; Function Attrs: mustprogress nounwind uwtable
define internal noundef ptr @_ZNSt8_Rb_treeIZN12_GLOBAL__N_122HandleTransformCommandERKSt6vectorINSt7__cxx1112basic_stringIcSt11char_traitsIcESaIcEEESaIS7_EER17cmExecutionStatusE16ActionDescriptorSE_St9_IdentityISE_ESt8functionIFbRKS7_SJ_EESaISE_EE8_M_beginEv(ptr noundef nonnull align 8 dereferenceable(72) %0) #6 align 2 {
  %2 = alloca ptr, align 8
  store ptr %0, ptr %2, align 8, !tbaa !350
  %3 = load ptr, ptr %2, align 8
  %4 = call noundef ptr @_ZNKSt8_Rb_treeIZN12_GLOBAL__N_122HandleTransformCommandERKSt6vectorINSt7__cxx1112basic_stringIcSt11char_traitsIcESaIcEEESaIS7_EER17cmExecutionStatusE16ActionDescriptorSE_St9_IdentityISE_ESt8functionIFbRKS7_SJ_EESaISE_EE9_M_mbeginEv(ptr noundef nonnull align 8 dereferenceable(72) %3) #3
  ret ptr %4
}

; Function Attrs: mustprogress nounwind uwtable
define internal void @_ZNSt8_Rb_treeIZN12_GLOBAL__N_122HandleTransformCommandERKSt6vectorINSt7__cxx1112basic_stringIcSt11char_traitsIcESaIcEEESaIS7_EER17cmExecutionStatusE16ActionDescriptorSE_St9_IdentityISE_ESt8functionIFbRKS7_SJ_EESaISE_EED2Ev(ptr noundef nonnull align 8 dereferenceable(72) %0) unnamed_addr #6 align 2 personality ptr @__gxx_personality_v0 {
  %2 = alloca ptr, align 8
  store ptr %0, ptr %2, align 8, !tbaa !350
  %3 = load ptr, ptr %2, align 8
  %4 = call noundef ptr @_ZNSt8_Rb_treeIZN12_GLOBAL__N_122HandleTransformCommandERKSt6vectorINSt7__cxx1112basic_stringIcSt11char_traitsIcESaIcEEESaIS7_EER17cmExecutionStatusE16ActionDescriptorSE_St9_IdentityISE_ESt8functionIFbRKS7_SJ_EESaISE_EE8_M_beginEv(ptr noundef nonnull align 8 dereferenceable(72) %3) #3
  invoke void @_ZNSt8_Rb_treeIZN12_GLOBAL__N_122HandleTransformCommandERKSt6vectorINSt7__cxx1112basic_stringIcSt11char_traitsIcESaIcEEESaIS7_EER17cmExecutionStatusE16ActionDescriptorSE_St9_IdentityISE_ESt8functionIFbRKS7_SJ_EESaISE_EE8_M_eraseEPSt13_Rb_tree_nodeISE_E(ptr noundef nonnull align 8 dereferenceable(72) %3, ptr noundef %4)
          to label %5 unwind label %7

5:                                                ; preds = %1
  %6 = getelementptr inbounds nuw %"class.std::_Rb_tree.181", ptr %3, i32 0, i32 0
  call void @_ZNSt8_Rb_treeIZN12_GLOBAL__N_122HandleTransformCommandERKSt6vectorINSt7__cxx1112basic_stringIcSt11char_traitsIcESaIcEEESaIS7_EER17cmExecutionStatusE16ActionDescriptorSE_St9_IdentityISE_ESt8functionIFbRKS7_SJ_EESaISE_EE13_Rb_tree_implISL_Lb0EED2Ev(ptr noundef nonnull align 8 dereferenceable(72) %6) #3
  ret void

7:                                                ; preds = %1
  %8 = landingpad { ptr, i32 }
          catch ptr null
  %9 = extractvalue { ptr, i32 } %8, 0
  call void @__clang_call_terminate(ptr %9) #22
  unreachable
}