; Function Attrs: mustprogress nounwind uwtable
define internal fastcc void @_ZNSt8_Rb_treeIZN12_GLOBAL__N_122HandleTransformCommandERKSt6vectorINSt7__cxx1112basic_stringIcSt11char_traitsIcESaIcEEESaIS7_EER17cmExecutionStatusE16ActionDescriptorSE_St9_IdentityISE_ESt8functionIFbRKS7_SJ_EESaISE_EED2Ev(ptr noundef nonnull align 8 dereferenceable(72) %0) unnamed_addr #9 align 2 personality ptr @__gxx_personality_v0 {
  %2 = getelementptr inbounds nuw i8, ptr %0, i64 40
  %.val = load ptr, ptr %2, align 8, !tbaa !224
  tail call fastcc void @_ZNSt8_Rb_treeIZN12_GLOBAL__N_122HandleTransformCommandERKSt6vectorINSt7__cxx1112basic_stringIcSt11char_traitsIcESaIcEEESaIS7_EER17cmExecutionStatusE16ActionDescriptorSE_St9_IdentityISE_ESt8functionIFbRKS7_SJ_EESaISE_EE8_M_eraseEPSt13_Rb_tree_nodeISE_E(ptr noundef %.val)
  %3 = getelementptr inbounds nuw i8, ptr %0, i64 16
  %4 = load ptr, ptr %3, align 8, !tbaa !218
  %.not.i.i.i = icmp eq ptr %4, null
  br i1 %.not.i.i.i, label %_ZNSt8_Rb_treeIZN12_GLOBAL__N_122HandleTransformCommandERKSt6vectorINSt7__cxx1112basic_stringIcSt11char_traitsIcESaIcEEESaIS7_EER17cmExecutionStatusE16ActionDescriptorSE_St9_IdentityISE_ESt8functionIFbRKS7_SJ_EESaISE_EE13_Rb_tree_implISL_Lb0EED2Ev.exit, label %5

5:                                                ; preds = %1
  %6 = invoke noundef zeroext i1 %4(ptr noundef nonnull align 8 dereferenceable(72) %0, ptr noundef nonnull align 8 dereferenceable(72) %0, i32 noundef 3)
          to label %_ZNSt8_Rb_treeIZN12_GLOBAL__N_122HandleTransformCommandERKSt6vectorINSt7__cxx1112basic_stringIcSt11char_traitsIcESaIcEEESaIS7_EER17cmExecutionStatusE16ActionDescriptorSE_St9_IdentityISE_ESt8functionIFbRKS7_SJ_EESaISE_EE13_Rb_tree_implISL_Lb0EED2Ev.exit unwind label %7

7:                                                ; preds = %5
  %8 = landingpad { ptr, i32 }
          catch ptr null
  %9 = extractvalue { ptr, i32 } %8, 0
  tail call void @__clang_call_terminate(ptr %9) #31
  unreachable

_ZNSt8_Rb_treeIZN12_GLOBAL__N_122HandleTransformCommandERKSt6vectorINSt7__cxx1112basic_stringIcSt11char_traitsIcESaIcEEESaIS7_EER17cmExecutionStatusE16ActionDescriptorSE_St9_IdentityISE_ESt8functionIFbRKS7_SJ_EESaISE_EE13_Rb_tree_implISL_Lb0EED2Ev.exit: ; preds = %1, %5
  ret void
}